(dp0
S'users'
p1
(dp2
S'khpatel'
p3
(dp4
S'sups'
p5
(lp6
sS'user_id'
p7
g3
sS'friends_list'
p8
(lp9
sS'full_name'
p10
S'Kush Patel'
p11
ssS'Mario'
p12
(dp13
S'sups'
p14
(lp15
(dp16
S'date'
p17
L1428075231306L
sS'sup_id'
p18
Vb479bb43-4058-450b-8955-8fca232a82d2
p19
sS'sender_id'
p20
S'kpatel'
p21
sa(dp22
S'date'
p23
L1428075314317L
sS'sup_id'
p24
Ve522c7a0-ed3c-4318-8686-187aa4df52c2
p25
sS'sender_id'
p26
S'kpatel'
p27
sa(dp28
S'date'
p29
L1428075382318L
sS'sup_id'
p30
V26f95415-d931-48b6-8ea2-2b05790fd296
p31
sS'sender_id'
p32
S'kpatel'
p33
sa(dp34
S'date'
p35
L1428075415994L
sS'sup_id'
p36
V235fa71e-e7f3-44e7-8ad5-85d3a806c619
p37
sS'sender_id'
p38
S'kpatel'
p39
sa(dp40
S'date'
p41
L1428075587787L
sS'sup_id'
p42
Vaff3146b-caa6-4f74-8b37-dfaeba4a2624
p43
sS'sender_id'
p44
S'kpatel'
p45
sa(dp46
S'date'
p47
L1428076156043L
sS'sup_id'
p48
V47378085-001e-436a-bb28-7f8b0f49641f
p49
sS'sender_id'
p50
S'kpatel'
p51
sasS'user_id'
p52
g12
sS'friends_list'
p53
(lp54
Vkpatel
p55
asS'full_name'
p56
S'Mario'
p57
ssS'kpatel2'
p58
(dp59
S'sups'
p60
(lp61
(dp62
S'date'
p63
L1428074770607L
sS'sup_id'
p64
V517a4e43-96b3-4f45-bc0d-621dd2442dfa
p65
sS'sender_id'
p66
S'kpatel'
p67
sa(dp68
S'date'
p69
L1428075786644L
sS'sup_id'
p70
Vf844a3dc-9e3b-4b9d-9cef-ed5f044b608b
p71
sS'sender_id'
p72
S'kpatel'
p73
sa(dp74
S'date'
p75
L1428075844174L
sS'sup_id'
p76
Vf3b0cb00-8214-49c8-9f2b-3b6f34e0e62f
p77
sS'sender_id'
p78
S'kpatel'
p79
sa(dp80
S'date'
p81
L1428075950377L
sS'sup_id'
p82
V6746e0df-2c46-4ee4-9a93-c6b18ca63f1d
p83
sS'sender_id'
p84
S'kpatel'
p85
sa(dp86
S'date'
p87
L1428075973818L
sS'sup_id'
p88
Vd5667dec-665b-4c51-951e-ecc6efc1411c
p89
sS'sender_id'
p90
S'kpatel'
p91
sa(dp92
S'date'
p93
L1428076014221L
sS'sup_id'
p94
Vf5c28d2d-c0ae-4d06-84e1-14266c5519ec
p95
sS'sender_id'
p96
S'kpatel'
p97
sa(dp98
S'date'
p99
L1428076153354L
sS'sup_id'
p100
V717d1cd7-37e3-49ab-b0e6-6bea841bfd3b
p101
sS'sender_id'
p102
S'kpatel'
p103
sa(dp104
S'date'
p105
L1428076161226L
sS'sup_id'
p106
Vf9a1c1ac-4ab9-438c-806f-203d08e9cf0b
p107
sS'sender_id'
p108
S'kpatel'
p109
sa(dp110
S'date'
p111
L1428329873603L
sS'sup_id'
p112
Vb52d80f7-2052-4451-a119-15915970861f
p113
sS'sender_id'
p114
S'kpatel'
p115
sa(dp116
S'date'
p117
L1428331054564L
sS'sup_id'
p118
Vc6a67656-1bb2-4e5f-8303-5e23539a6183
p119
sS'sender_id'
p120
S'Mario'
p121
sasS'user_id'
p122
g58
sS'full_name'
p123
S'Kush Patel2'
p124
sS'friends_list'
p125
(lp126
ssS'kpatel'
p127
(dp128
S'sups'
p129
(lp130
(dp131
S'date'
p132
L1428331054557L
sS'sup_id'
p133
Vd0bb45e7-b896-479e-a7a1-c3656ae601e4
p134
sS'sender_id'
p135
S'Mario'
p136
sa(dp137
S'date'
p138
L1428331060272L
sS'sup_id'
p139
Vedcdde42-4bcc-4ae3-b9a1-25f8baa03b19
p140
sS'sender_id'
p141
S'Mario'
p142
sa(dp143
S'date'
p144
L1429389005737L
sS'sup_id'
p145
Veca5e7d3-bc6b-4b95-a8e4-b1f38a6fcf2d
p146
sS'sender_id'
p147
S'Mario'
p148
sasS'user_id'
p149
g127
sS'friends_list'
p150
(lp151
VMario
p152
asS'full_name'
p153
S'Kush Patel'
p154
ssS'mterry'
p155
(dp156
S'sups'
p157
(lp158
(dp159
S'date'
p160
L1428183221844L
sS'sup_id'
p161
V3da06e19-2bfb-42bd-8a60-65a154cbc9c1
p162
sS'sender_id'
p163
S'mterry'
p164
sasS'user_id'
p165
g155
sS'full_name'
p166
S'Michael Terry'
p167
sS'friends_list'
p168
(lp169
Vmterry
p170
asss.